(dp0
Vengine
p1
S'pdflatex'
p2
sVpackages
p3
c__builtin__
set
p4
((lp5
Vfixme
p6
aVxcolor
p7
aValgorithmic
p8
aValgorithm
p9
aVamsmath
p10
aVlistings
p11
aVurl
p12
aVsubfigure
p13
aVarray
p14
aVbalance
p15
aVgraphicx
p16
aVnatbib
p17
atp18
Rp19
sVfiles_with_guttermarks
p20
g4
((lp21
V/Users/jofu/Dropbox/sharelatex/Babel BuildSys 2015/./main.tex
p22
aV/Users/jofu/Dropbox/sharelatex/Babel BuildSys 2015/sections/02-relwork.tex
p23
aV/Users/jofu/Dropbox/sharelatex/Babel BuildSys 2015/sections/01-intro.tex
p24
aV/Users/jofu/Dropbox/sharelatex/Babel BuildSys 2015/./sections/03-arch.tex
p25
aV/Users/jofu/Dropbox/sharelatex/Babel BuildSys 2015/sections/relwork.tex
p26
aV/Users/jofu/Dropbox/sharelatex/Babel BuildSys 2015/sections/intro.tex
p27
aV/Users/jofu/Dropbox/sharelatex/Babel BuildSys 2015/sections/04-implem.tex
p28
aV/Users/jofu/Dropbox/sharelatex/Babel BuildSys 2015/./sections/04-implem.tex
p29
aS'main.tex'
p30
aV/Users/jofu/Dropbox/sharelatex/Yuelao BuildSys 2015/sections/01-intro.tex
p31
aV/Users/jofu/Dropbox/sharelatex/Yuelao BuildSys 2015/./sections/01-intro.tex
p32
atp33
Rp34
sVsynctex
p35
I01
s.